target datalayout = "e-m:e-p270:32:32-p271:32:32-p272:64:64-i64:64-i128:128-f80:128-n8:16:32:64-S128"
target triple = "x86_64-pc-linux-gnu"

%"class.clang::SourceLocation" = type { i32 }
%"class.clang::ASTStmtReader" = type <{ ptr, ptr, %"class.std::optional", [4 x i8] }>
%"class.std::optional" = type { %"struct.std::_Optional_base" }
%"struct.std::_Optional_base" = type { %"struct.std::_Optional_payload" }
%"struct.std::_Optional_payload" = type { %"struct.std::_Optional_payload_base.base", [3 x i8] }
%"struct.std::_Optional_payload_base.base" = type <{ %"union.std::_Optional_payload_base<clang::BitsUnpacker>::_Storage", i8 }>
%"union.std::_Optional_payload_base<clang::BitsUnpacker>::_Storage" = type { %"class.clang::BitsUnpacker" }
%"class.clang::BitsUnpacker" = type { i32, i32 }
%"class.clang::Stmt" = type { %union.anon.9 }
%union.anon.9 = type { %"class.clang::Stmt::PseudoObjectExprBitfields" }
%"class.clang::Stmt::PseudoObjectExprBitfields" = type { i64 }
%"class.clang::DeclarationName" = type { i64 }
%"class.clang::ValueStmt" = type { %"class.clang::Stmt" }
%"class.clang::Expr" = type { %"class.clang::ValueStmt", %"class.clang::QualType" }
%"class.clang::QualType" = type { %"class.llvm::PointerIntPair.201" }
%"class.llvm::PointerIntPair.201" = type { %"struct.llvm::detail::PunnedPointer.202" }
%"struct.llvm::detail::PunnedPointer.202" = type { [8 x i8] }
%"class.clang::DeclarationNameLoc" = type { %union.anon.469 }
%union.anon.469 = type { %"struct.clang::DeclarationNameLoc::NT" }
%"struct.clang::DeclarationNameLoc::NT" = type { ptr }
%"class.clang::NestedNameSpecifierLoc" = type { ptr, ptr }
%"struct.clang::DeclarationNameInfo" = type { %"class.clang::DeclarationName", %"class.clang::SourceLocation", %"class.clang::DeclarationNameLoc" }
%"class.clang::DependentScopeDeclRefExpr" = type { %"class.clang::Expr", %"class.clang::NestedNameSpecifierLoc", %"struct.clang::DeclarationNameInfo" }
%"struct.std::_Optional_payload_base" = type <{ %"union.std::_Optional_payload_base<clang::BitsUnpacker>::_Storage", i8, [3 x i8] }>
%"struct.clang::ASTTemplateKWAndArgsInfo" = type { %"class.clang::SourceLocation", %"class.clang::SourceLocation", %"class.clang::SourceLocation", i32 }

; Function Attrs: mustprogress nounwind uwtable
define linkonce_odr hidden noundef zeroext i1 @_ZNK5clang25DependentScopeDeclRefExpr24hasTemplateKWAndArgsInfoEv(ptr noundef nonnull align 8 dereferenceable(56) %0) #0 comdat align 2 {
  %2 = alloca ptr, align 8
  store ptr %0, ptr %2, align 8
  %3 = load ptr, ptr %2, align 8
  %4 = getelementptr inbounds nuw %"class.clang::Stmt", ptr %3, i32 0, i32 0
  %5 = load i24, ptr %4, align 8
  %6 = lshr i24 %5, 18
  %7 = and i24 %6, 1
  %8 = zext i24 %7 to i32
  %9 = icmp ne i32 %8, 0
  ret i1 %9
}

; Function Attrs: mustprogress nounwind uwtable
define linkonce_odr hidden noundef i64 @_ZNK5clang25DependentScopeDeclRefExpr18numTrailingObjectsEN4llvm25trailing_objects_internal19TrailingObjectsBase13OverloadTokenINS_24ASTTemplateKWAndArgsInfoEEE(ptr noundef nonnull align 8 dereferenceable(56) %0) #0 comdat align 2 {
  %2 = alloca ptr, align 8
  store ptr %0, ptr %2, align 8
  %3 = load ptr, ptr %2, align 8
  %4 = call noundef zeroext i1 @_ZNK5clang25DependentScopeDeclRefExpr24hasTemplateKWAndArgsInfoEv(ptr noundef nonnull align 8 dereferenceable(56) %3)
  %5 = zext i1 %4 to i64
  ret i64 %5
}

; Function Attrs: mustprogress nounwind uwtable
define linkonce_odr hidden noundef i64 @_ZN4llvm15TrailingObjectsIN5clang25DependentScopeDeclRefExprEJNS1_24ASTTemplateKWAndArgsInfoENS1_19TemplateArgumentLocEEE22callNumTrailingObjectsIS3_EEmPKS2_NS_25trailing_objects_internal19TrailingObjectsBase13OverloadTokenIT_EE(ptr noundef %0) #0 comdat align 2 {
  %2 = alloca ptr, align 8
  store ptr %0, ptr %2, align 8
  %3 = load ptr, ptr %2, align 8
  %4 = call noundef i64 @_ZNK5clang25DependentScopeDeclRefExpr18numTrailingObjectsEN4llvm25trailing_objects_internal19TrailingObjectsBase13OverloadTokenINS_24ASTTemplateKWAndArgsInfoEEE(ptr noundef nonnull align 8 dereferenceable(56) %3)
  ret i64 %4
}

; Function Attrs: mustprogress nounwind uwtable
define linkonce_odr hidden noundef i64 @_ZN4llvm15TrailingObjectsIN5clang25DependentScopeDeclRefExprEJNS1_24ASTTemplateKWAndArgsInfoENS1_19TemplateArgumentLocEEE22callNumTrailingObjectsEPKS2_NS_25trailing_objects_internal19TrailingObjectsBase13OverloadTokenIS2_EE(ptr noundef %0) #0 comdat align 2 {
  %2 = alloca ptr, align 8
  store ptr %0, ptr %2, align 8
  ret i64 1
}

; Function Attrs: mustprogress nounwind uwtable
define linkonce_odr hidden noundef ptr @_ZN4llvm15TrailingObjectsIN5clang25DependentScopeDeclRefExprEJNS1_24ASTTemplateKWAndArgsInfoENS1_19TemplateArgumentLocEEE22getTrailingObjectsImplEPS2_NS_25trailing_objects_internal19TrailingObjectsBase13OverloadTokenIS2_EE(ptr noundef %0) #0 comdat align 2 {
  %2 = alloca ptr, align 8
  store ptr %0, ptr %2, align 8
  %3 = load ptr, ptr %2, align 8
  ret ptr %3
}

; Function Attrs: mustprogress nounwind uwtable
define linkonce_odr hidden noundef nonnull align 4 dereferenceable(8) ptr @_ZNSt22_Optional_payload_baseIN5clang12BitsUnpackerEE6_M_getEv(ptr noundef nonnull align 4 dereferenceable(9) %0) #0 comdat align 2 {
  %2 = alloca ptr, align 8
  store ptr %0, ptr %2, align 8
  %3 = load ptr, ptr %2, align 8
  %4 = getelementptr inbounds nuw %"struct.std::_Optional_payload_base", ptr %3, i32 0, i32 0
  ret ptr %4
}

; Function Attrs: mustprogress nounwind uwtable
define linkonce_odr hidden noundef ptr @_ZN4llvm25trailing_objects_internal19TrailingObjectsImplILi8EN5clang25DependentScopeDeclRefExprENS_15TrailingObjectsIS3_JNS2_24ASTTemplateKWAndArgsInfoENS2_19TemplateArgumentLocEEEES5_JS6_EE22getTrailingObjectsImplEPS3_NS0_19TrailingObjectsBase13OverloadTokenIS6_EE(ptr noundef %0) #0 comdat align 2 {
  %2 = alloca ptr, align 8
  %3 = alloca ptr, align 8
  store ptr %0, ptr %2, align 8
  %4 = load ptr, ptr %2, align 8
  %5 = call noundef ptr @_ZN4llvm25trailing_objects_internal19TrailingObjectsImplILi8EN5clang25DependentScopeDeclRefExprENS_15TrailingObjectsIS3_JNS2_24ASTTemplateKWAndArgsInfoENS2_19TemplateArgumentLocEEEES3_JS5_S6_EE22getTrailingObjectsImplEPS3_NS0_19TrailingObjectsBase13OverloadTokenIS5_EE(ptr noundef %4)
  %6 = load ptr, ptr %2, align 8
  %7 = call noundef i64 @_ZN4llvm15TrailingObjectsIN5clang25DependentScopeDeclRefExprEJNS1_24ASTTemplateKWAndArgsInfoENS1_19TemplateArgumentLocEEE22callNumTrailingObjectsIS3_EEmPKS2_NS_25trailing_objects_internal19TrailingObjectsBase13OverloadTokenIT_EE(ptr noundef %6)
  %8 = getelementptr inbounds %"struct.clang::ASTTemplateKWAndArgsInfo", ptr %5, i64 %7
  store ptr %8, ptr %3, align 8
  %9 = load ptr, ptr %3, align 8
  ret ptr %9
}

; Function Attrs: mustprogress nounwind uwtable
define linkonce_odr hidden noundef ptr @_ZN4llvm25trailing_objects_internal19TrailingObjectsImplILi8EN5clang25DependentScopeDeclRefExprENS_15TrailingObjectsIS3_JNS2_24ASTTemplateKWAndArgsInfoENS2_19TemplateArgumentLocEEEES3_JS5_S6_EE22getTrailingObjectsImplEPS3_NS0_19TrailingObjectsBase13OverloadTokenIS5_EE(ptr noundef %0) #0 comdat align 2 {
  %2 = alloca ptr, align 8
  %3 = alloca ptr, align 8
  store ptr %0, ptr %2, align 8
  %4 = load ptr, ptr %2, align 8
  %5 = call noundef ptr @_ZN4llvm15TrailingObjectsIN5clang25DependentScopeDeclRefExprEJNS1_24ASTTemplateKWAndArgsInfoENS1_19TemplateArgumentLocEEE22getTrailingObjectsImplEPS2_NS_25trailing_objects_internal19TrailingObjectsBase13OverloadTokenIS2_EE(ptr noundef %4)
  %6 = load ptr, ptr %2, align 8
  %7 = call noundef i64 @_ZN4llvm15TrailingObjectsIN5clang25DependentScopeDeclRefExprEJNS1_24ASTTemplateKWAndArgsInfoENS1_19TemplateArgumentLocEEE22callNumTrailingObjectsEPKS2_NS_25trailing_objects_internal19TrailingObjectsBase13OverloadTokenIS2_EE(ptr noundef %6)
  %8 = getelementptr inbounds %"class.clang::DependentScopeDeclRefExpr", ptr %5, i64 %7
  store ptr %8, ptr %3, align 8
  %9 = load ptr, ptr %3, align 8
  ret ptr %9
}

; Function Attrs: mustprogress nounwind uwtable
define linkonce_odr hidden void @_ZN4llvm15TrailingObjectsIN5clang25DependentScopeDeclRefExprEJNS1_24ASTTemplateKWAndArgsInfoENS1_19TemplateArgumentLocEEE31verifyTrailingObjectsAssertionsEv() #0 comdat align 2 {
  ret void
}

; Function Attrs: mustprogress nounwind uwtable
define linkonce_odr hidden noundef nonnull align 4 dereferenceable(8) ptr @_ZNSt19_Optional_base_implIN5clang12BitsUnpackerESt14_Optional_baseIS1_Lb0ELb0EEE6_M_getEv(ptr noundef nonnull align 1 dereferenceable(1) %0) #0 comdat align 2 {
  %2 = alloca ptr, align 8
  store ptr %0, ptr %2, align 8
  %3 = load ptr, ptr %2, align 8
  br label %4

4:                                                ; preds = %1
  br label %5

5:                                                ; preds = %4
  %6 = getelementptr inbounds nuw %"struct.std::_Optional_base", ptr %3, i32 0, i32 0
  %7 = call noundef nonnull align 4 dereferenceable(8) ptr @_ZNSt22_Optional_payload_baseIN5clang12BitsUnpackerEE6_M_getEv(ptr noundef nonnull align 4 dereferenceable(9) %6) #12
  ret ptr %7
}

; Function Attrs: mustprogress nounwind uwtable
define linkonce_odr hidden noundef i32 @_ZN5clang12BitsUnpacker11getNextBitsEj(ptr noundef nonnull align 4 dereferenceable(8) %0, i32 noundef %1) #0 comdat align 2 {
  %3 = alloca ptr, align 8
  %4 = alloca i32, align 4
  %5 = alloca i32, align 4
  store ptr %0, ptr %3, align 8
  store i32 %1, ptr %4, align 4
  %6 = load ptr, ptr %3, align 8
  %7 = getelementptr inbounds nuw %"class.clang::BitsUnpacker", ptr %6, i32 0, i32 0
  %8 = load i32, ptr %7, align 4
  %9 = getelementptr inbounds nuw %"class.clang::BitsUnpacker", ptr %6, i32 0, i32 1
  %10 = load i32, ptr %9, align 4
  %11 = lshr i32 %8, %10
  %12 = load i32, ptr %4, align 4
  %13 = shl i32 1, %12
  %14 = sub nsw i32 %13, 1
  %15 = and i32 %11, %14
  store i32 %15, ptr %5, align 4
  %16 = load i32, ptr %4, align 4
  %17 = getelementptr inbounds nuw %"class.clang::BitsUnpacker", ptr %6, i32 0, i32 1
  %18 = load i32, ptr %17, align 4
  %19 = add i32 %18, %16
  store i32 %19, ptr %17, align 4
  %20 = load i32, ptr %5, align 4
  ret i32 %20
}

; Function Attrs: mustprogress nounwind uwtable
define linkonce_odr hidden noundef ptr @_ZN4llvm15TrailingObjectsIN5clang25DependentScopeDeclRefExprEJNS1_24ASTTemplateKWAndArgsInfoENS1_19TemplateArgumentLocEEE18getTrailingObjectsIS4_EEPT_v(ptr noundef nonnull align 8 dereferenceable(8) %0) #0 comdat align 2 {
  %2 = alloca ptr, align 8
  store ptr %0, ptr %2, align 8
  %3 = load ptr, ptr %2, align 8
  call void @_ZN4llvm15TrailingObjectsIN5clang25DependentScopeDeclRefExprEJNS1_24ASTTemplateKWAndArgsInfoENS1_19TemplateArgumentLocEEE31verifyTrailingObjectsAssertionsEv()
  %4 = call noundef ptr @_ZN4llvm25trailing_objects_internal19TrailingObjectsImplILi8EN5clang25DependentScopeDeclRefExprENS_15TrailingObjectsIS3_JNS2_24ASTTemplateKWAndArgsInfoENS2_19TemplateArgumentLocEEEES5_JS6_EE22getTrailingObjectsImplEPS3_NS0_19TrailingObjectsBase13OverloadTokenIS6_EE(ptr noundef %3)
  ret ptr %4
}

; Function Attrs: mustprogress nounwind uwtable
define linkonce_odr hidden noundef ptr @_ZN4llvm15TrailingObjectsIN5clang25DependentScopeDeclRefExprEJNS1_24ASTTemplateKWAndArgsInfoENS1_19TemplateArgumentLocEEE18getTrailingObjectsIS3_EEPT_v(ptr noundef nonnull align 8 dereferenceable(8) %0) #0 comdat align 2 {
  %2 = alloca ptr, align 8
  store ptr %0, ptr %2, align 8
  %3 = load ptr, ptr %2, align 8
  call void @_ZN4llvm15TrailingObjectsIN5clang25DependentScopeDeclRefExprEJNS1_24ASTTemplateKWAndArgsInfoENS1_19TemplateArgumentLocEEE31verifyTrailingObjectsAssertionsEv()
  %4 = call noundef ptr @_ZN4llvm25trailing_objects_internal19TrailingObjectsImplILi8EN5clang25DependentScopeDeclRefExprENS_15TrailingObjectsIS3_JNS2_24ASTTemplateKWAndArgsInfoENS2_19TemplateArgumentLocEEEES3_JS5_S6_EE22getTrailingObjectsImplEPS3_NS0_19TrailingObjectsBase13OverloadTokenIS5_EE(ptr noundef %3)
  ret ptr %4
}

; Function Attrs: mustprogress nounwind uwtable
define linkonce_odr hidden noundef zeroext i1 @_ZN5clang12BitsUnpacker10getNextBitEv(ptr noundef nonnull align 4 dereferenceable(8) %0) #0 comdat align 2 {
  %2 = alloca ptr, align 8
  store ptr %0, ptr %2, align 8
  %3 = load ptr, ptr %2, align 8
  %4 = getelementptr inbounds nuw %"class.clang::BitsUnpacker", ptr %3, i32 0, i32 0
  %5 = load i32, ptr %4, align 4
  %6 = getelementptr inbounds nuw %"class.clang::BitsUnpacker", ptr %3, i32 0, i32 1
  %7 = load i32, ptr %6, align 4
  %8 = add i32 %7, 1
  store i32 %8, ptr %6, align 4
  %9 = shl i32 1, %7
  %10 = and i32 %5, %9
  %11 = icmp ne i32 %10, 0
  ret i1 %11
}

; Function Attrs: mustprogress nounwind uwtable
define linkonce_odr hidden noundef ptr @_ZNSt8optionalIN5clang12BitsUnpackerEEptEv(ptr noundef nonnull align 4 dereferenceable(12) %0) #0 comdat align 2 {
  %2 = alloca ptr, align 8
  store ptr %0, ptr %2, align 8
  %3 = load ptr, ptr %2, align 8
  %4 = call noundef nonnull align 4 dereferenceable(8) ptr @_ZNSt19_Optional_base_implIN5clang12BitsUnpackerESt14_Optional_baseIS1_Lb0ELb0EEE6_M_getEv(ptr noundef nonnull align 1 dereferenceable(1) %3) #12
  ret ptr %4
}

; Function Attrs: mustprogress nounwind uwtable
define dso_local void @_ZN5clang13ASTStmtReader30VisitDependentScopeDeclRefExprEPNS_25DependentScopeDeclRefExprE(ptr noundef nonnull align 8 dereferenceable(28) %0, ptr noundef %1) #0 align 2 {
  %3 = alloca ptr, align 8
  %4 = alloca ptr, align 8
  %5 = alloca %"class.clang::NestedNameSpecifierLoc", align 8
  %6 = alloca %"struct.clang::DeclarationNameInfo", align 8
  store ptr %0, ptr %3, align 8
  store ptr %1, ptr %4, align 8
  %7 = load ptr, ptr %3, align 8
  %8 = load ptr, ptr %4, align 8
  call void @_ZN5clang13ASTStmtReader9VisitExprEPNS_4ExprE(ptr noundef nonnull align 8 dereferenceable(28) %7, ptr noundef %8)
  %9 = getelementptr inbounds nuw %"class.clang::ASTStmtReader", ptr %7, i32 0, i32 2
  %10 = call noundef ptr @_ZNSt8optionalIN5clang12BitsUnpackerEEptEv(ptr noundef nonnull align 4 dereferenceable(12) %9) #12
  %11 = call noundef zeroext i1 @_ZN5clang12BitsUnpacker10getNextBitEv(ptr noundef nonnull align 4 dereferenceable(8) %10)
  br i1 %11, label %12, label %20

12:                                               ; preds = %2
  %13 = load ptr, ptr %4, align 8
  %14 = call noundef ptr @_ZN4llvm15TrailingObjectsIN5clang25DependentScopeDeclRefExprEJNS1_24ASTTemplateKWAndArgsInfoENS1_19TemplateArgumentLocEEE18getTrailingObjectsIS3_EEPT_v(ptr noundef nonnull align 8 dereferenceable(8) %13)
  %15 = load ptr, ptr %4, align 8
  %16 = call noundef ptr @_ZN4llvm15TrailingObjectsIN5clang25DependentScopeDeclRefExprEJNS1_24ASTTemplateKWAndArgsInfoENS1_19TemplateArgumentLocEEE18getTrailingObjectsIS4_EEPT_v(ptr noundef nonnull align 8 dereferenceable(8) %15)
  %17 = getelementptr inbounds nuw %"class.clang::ASTStmtReader", ptr %7, i32 0, i32 2
  %18 = call noundef ptr @_ZNSt8optionalIN5clang12BitsUnpackerEEptEv(ptr noundef nonnull align 4 dereferenceable(12) %17) #12
  %19 = call noundef i32 @_ZN5clang12BitsUnpacker11getNextBitsEj(ptr noundef nonnull align 4 dereferenceable(8) %18, i32 noundef 16)
  call void @_ZN5clang13ASTStmtReader25ReadTemplateKWAndArgsInfoERNS_24ASTTemplateKWAndArgsInfoEPNS_19TemplateArgumentLocEj(ptr noundef nonnull align 8 dereferenceable(28) %7, ptr noundef nonnull align 8 dereferenceable(16) %14, ptr noundef %16, i32 noundef %19)
  br label %20

20:                                               ; preds = %12, %2
  %21 = getelementptr inbounds nuw %"class.clang::ASTStmtReader", ptr %7, i32 0, i32 0
  %22 = load ptr, ptr %21, align 8
  %23 = call { ptr, ptr } @_ZN5clang15ASTRecordReader26readNestedNameSpecifierLocEv(ptr noundef nonnull align 8 dereferenceable(560) %22)
  %24 = getelementptr inbounds nuw { ptr, ptr }, ptr %5, i32 0, i32 0
  %25 = extractvalue { ptr, ptr } %23, 0
  store ptr %25, ptr %24, align 8
  %26 = getelementptr inbounds nuw { ptr, ptr }, ptr %5, i32 0, i32 1
  %27 = extractvalue { ptr, ptr } %23, 1
  store ptr %27, ptr %26, align 8
  %28 = load ptr, ptr %4, align 8
  %29 = getelementptr inbounds nuw %"class.clang::DependentScopeDeclRefExpr", ptr %28, i32 0, i32 1
  call void @llvm.memcpy.p0.p0.i64(ptr align 8 %29, ptr align 8 %5, i64 16, i1 false)
  %30 = getelementptr inbounds nuw %"class.clang::ASTStmtReader", ptr %7, i32 0, i32 0
  %31 = load ptr, ptr %30, align 8
  call void @_ZN5clang15ASTRecordReader23readDeclarationNameInfoEv(ptr dead_on_unwind writable sret(%"struct.clang::DeclarationNameInfo") align 8 %6, ptr noundef nonnull align 8 dereferenceable(560) %31)
  %32 = load ptr, ptr %4, align 8
  %33 = getelementptr inbounds nuw %"class.clang::DependentScopeDeclRefExpr", ptr %32, i32 0, i32 2
  call void @llvm.memcpy.p0.p0.i64(ptr align 8 %33, ptr align 8 %6, i64 24, i1 false)
  ret void
}