; Function Attrs: mustprogress nounwind uwtable
define dso_local void @_ZN5clang13ASTStmtReader30VisitDependentScopeDeclRefExprEPNS_25DependentScopeDeclRefExprE(ptr noundef nonnull align 8 captures(none) dereferenceable(28) initializes((16, 25)) %0, ptr noundef initializes((8, 16)) %1) local_unnamed_addr #0 align 2 {
  %3 = alloca %"struct.clang::DeclarationNameInfo", align 8
  tail call void @_ZN5clang13ASTStmtReader9VisitExprEPNS_4ExprE(ptr noundef nonnull align 8 dereferenceable(28) %0, ptr noundef %1)
  %4 = getelementptr inbounds nuw i8, ptr %0, i64 16
  %5 = load i32, ptr %4, align 8
  %6 = getelementptr inbounds nuw i8, ptr %0, i64 20
  %7 = load i32, ptr %6, align 4
  %8 = add i32 %7, 1
  store i32 %8, ptr %6, align 4
  %9 = shl nuw i32 1, %7
  %10 = and i32 %9, %5
  %.not = icmp eq i32 %10, 0
  br i1 %.not, label %20, label %11

11:                                               ; preds = %2
  %12 = getelementptr inbounds nuw i8, ptr %1, i64 56
  %13 = load i24, ptr %1, align 8
  %14 = lshr i24 %13, 18
  %.lobit.i.i.i.i = and i24 %14, 1
  %15 = zext nneg i24 %.lobit.i.i.i.i to i64
  %16 = getelementptr inbounds nuw %"struct.clang::ASTTemplateKWAndArgsInfo", ptr %12, i64 %15
  %17 = lshr i32 %5, %8
  %18 = and i32 %17, 65535
  %19 = add i32 %7, 17
  store i32 %19, ptr %6, align 4
  tail call void @_ZN5clang13ASTStmtReader25ReadTemplateKWAndArgsInfoERNS_24ASTTemplateKWAndArgsInfoEPNS_19TemplateArgumentLocEj(ptr noundef nonnull align 8 dereferenceable(28) %0, ptr noundef nonnull align 8 dereferenceable(16) %12, ptr noundef nonnull %16, i32 noundef %18)
  br label %20

20:                                               ; preds = %11, %2
  %21 = load ptr, ptr %0, align 8
  %22 = tail call { ptr, ptr } @_ZN5clang15ASTRecordReader26readNestedNameSpecifierLocEv(ptr noundef nonnull align 8 dereferenceable(560) %21) #18
  %23 = extractvalue { ptr, ptr } %22, 0
  %24 = extractvalue { ptr, ptr } %22, 1
  %25 = getelementptr inbounds nuw i8, ptr %1, i64 16
  store ptr %23, ptr %25, align 8
  %.sroa.2.0..sroa_idx = getelementptr inbounds nuw i8, ptr %1, i64 24
  store ptr %24, ptr %.sroa.2.0..sroa_idx, align 8
  %26 = load ptr, ptr %0, align 8
  call void @_ZN5clang15ASTRecordReader23readDeclarationNameInfoEv(ptr dead_on_unwind nonnull writable sret(%"struct.clang::DeclarationNameInfo") align 8 %3, ptr noundef nonnull align 8 dereferenceable(560) %26) #18
  %27 = getelementptr inbounds nuw i8, ptr %1, i64 32
  call void @llvm.memcpy.p0.p0.i64(ptr noundef nonnull align 8 dereferenceable(24) %27, ptr noundef nonnull align 8 dereferenceable(24) %3, i64 24, i1 false)
  ret void
}